Certificate:
    Data:
        Version: 3 (0x2)
        Serial Number: 0 (0x0)
        Signature Algorithm: sha1WithRSAEncryption
        Issuer: C=GB, ST=Kent, O=Icomera UK Ltd, OU=moovmanage, CN=ca.moovmanage.com
        Validity
            Not Before: Jan 21 11:03:53 2009 GMT
            Not After : Jan 16 11:03:53 2029 GMT
        Subject: C=GB, ST=Kent, O=Icomera UK Ltd, OU=moovmanage, CN=ca.moovmanage.com
        Subject Public Key Info:
            Public Key Algorithm: rsaEncryption
            RSA Public Key: (1024 bit)
                Modulus (1024 bit):
                    00:ad:04:37:7c:85:f6:10:ce:0e:e1:f7:ec:ad:87:
                    f2:d7:38:51:3a:f4:a3:7d:12:23:82:b0:dd:33:d5:
                    c4:c2:19:c9:4b:98:cf:ba:12:d9:6a:a3:7d:e0:31:
                    a5:8f:40:18:80:15:12:1a:02:c5:a5:c8:7a:77:35:
                    13:f8:0a:4a:fe:e1:0d:bf:95:59:cb:11:cd:c0:45:
                    1b:d7:25:60:d6:6e:2f:66:4c:57:65:07:32:a5:9b:
                    63:49:21:99:0f:2b:61:06:96:b9:c8:00:25:ff:30:
                    55:02:78:85:cf:c8:43:77:f3:fc:58:d6:39:7e:c2:
                    9c:1b:93:c5:e0:33:1c:a3:15
                Exponent: 65537 (0x10001)
        X509v3 extensions:
            X509v3 Basic Constraints: 
                CA:FALSE
            Netscape Comment: 
                OpenSSL Generated Certificate
            X509v3 Subject Key Identifier: 
                F4:83:74:A8:8C:9A:9C:35:6C:B7:98:94:2F:74:2E:FF:DB:59:6A:1D
            X509v3 Authority Key Identifier: 
                keyid:F4:83:74:A8:8C:9A:9C:35:6C:B7:98:94:2F:74:2E:FF:DB:59:6A:1D

    Signature Algorithm: sha1WithRSAEncryption
        16:67:aa:1b:10:e6:4e:b2:c4:d0:de:ad:d2:32:a9:b0:2f:a8:
        ff:cc:75:4f:b0:ac:1e:80:00:3c:8e:c4:1d:25:a3:14:da:5c:
        41:e2:6a:e9:79:59:42:45:79:d6:3f:38:5a:3f:cf:2d:f2:de:
        90:ba:d2:36:1b:34:fd:a3:a9:a3:d5:68:94:d8:0a:64:09:6e:
        40:1a:c9:3d:cb:5b:6c:2b:e9:20:70:89:f4:e6:fc:2f:6f:86:
        39:53:ff:62:75:d8:5d:57:48:f0:86:fb:11:59:fe:f3:57:ce:
        98:fc:91:8e:3f:e4:48:53:dc:c6:0f:c5:f2:1a:d9:e2:62:38:
        7b:b6
-----BEGIN CERTIFICATE-----
MIICvTCCAiagAwIBAgIBADANBgkqhkiG9w0BAQUFADBmMQswCQYDVQQGEwJHQjEN
MAsGA1UECBMES2VudDEXMBUGA1UEChMOSWNvbWVyYSBVSyBMdGQxEzARBgNVBAsT
Cm1vb3ZtYW5hZ2UxGjAYBgNVBAMTEWNhLm1vb3ZtYW5hZ2UuY29tMB4XDTA5MDEy
MTExMDM1M1oXDTI5MDExNjExMDM1M1owZjELMAkGA1UEBhMCR0IxDTALBgNVBAgT
BEtlbnQxFzAVBgNVBAoTDkljb21lcmEgVUsgTHRkMRMwEQYDVQQLEwptb292bWFu
YWdlMRowGAYDVQQDExFjYS5tb292bWFuYWdlLmNvbTCBnzANBgkqhkiG9w0BAQEF
AAOBjQAwgYkCgYEArQQ3fIX2EM4O4ffsrYfy1zhROvSjfRIjgrDdM9XEwhnJS5jP
uhLZaqN94DGlj0AYgBUSGgLFpch6dzUT+ApK/uENv5VZyxHNwEUb1yVg1m4vZkxX
ZQcypZtjSSGZDythBpa5yAAl/zBVAniFz8hDd/P8WNY5fsKcG5PF4DMcoxUCAwEA
AaN7MHkwCQYDVR0TBAIwADAsBglghkgBhvhCAQ0EHxYdT3BlblNTTCBHZW5lcmF0
ZWQgQ2VydGlmaWNhdGUwHQYDVR0OBBYEFPSDdKiMmpw1bLeYlC90Lv/bWWodMB8G
A1UdIwQYMBaAFPSDdKiMmpw1bLeYlC90Lv/bWWodMA0GCSqGSIb3DQEBBQUAA4GB
ABZnqhsQ5k6yxNDerdIyqbAvqP/MdU+wrB6AADyOxB0loxTaXEHiaul5WUJFedY/
OFo/zy3y3pC60jYbNP2jqaPVaJTYCmQJbkAayT3LW2wr6SBwifTm/C9vhjlT/2J1
2F1XSPCG+xFZ/vNXzpj8kY4/5EhT3MYPxfIa2eJiOHu2
-----END CERTIFICATE-----
