Certificate:
    Data:
        Version: 3 (0x2)
        Serial Number: 1 (0x1)
        Signature Algorithm: sha1WithRSAEncryption
        Issuer: C=GB, ST=Kent, O=Icomera UK Ltd, OU=moovmanage, CN=ca.moovmanage.com
        Validity
            Not Before: Jan 21 11:09:53 2009 GMT
            Not After : Jan 19 11:09:53 2019 GMT
        Subject: C=GB, ST=Kent, L=Sittingbourne, O=Icomera UK Ltd, OU=moovmanage, CN=Moovbox
        Subject Public Key Info:
            Public Key Algorithm: rsaEncryption
            RSA Public Key: (1024 bit)
                Modulus (1024 bit):
                    00:94:5d:39:71:aa:95:d0:6d:f7:28:99:f1:40:e4:
                    8d:44:6f:90:0f:8b:59:c3:3e:c9:2b:86:11:59:c2:
                    9a:77:32:49:9e:b8:cb:72:36:c9:f0:d5:60:75:86:
                    31:8e:18:dc:7b:05:e7:ce:d9:3f:e6:04:a8:98:b7:
                    9e:99:22:60:6d:94:b1:38:3a:da:62:88:b0:56:75:
                    72:a1:71:e1:c3:66:65:75:16:cc:71:ef:01:28:27:
                    c0:e7:7d:0f:75:e2:27:71:f8:cd:47:4d:9d:da:3f:
                    18:41:43:37:c3:1d:ea:fb:23:00:e5:f9:eb:c5:2e:
                    45:ac:8c:74:17:48:d0:e5:f9
                Exponent: 65537 (0x10001)
        X509v3 extensions:
            X509v3 Basic Constraints: 
                CA:FALSE
            Netscape Comment: 
                OpenSSL Generated Certificate
            X509v3 Subject Key Identifier: 
                C2:40:9C:69:F0:06:3A:56:62:0D:39:A9:8A:08:05:50:F2:42:5E:7F
            X509v3 Authority Key Identifier: 
                keyid:F4:83:74:A8:8C:9A:9C:35:6C:B7:98:94:2F:74:2E:FF:DB:59:6A:1D

    Signature Algorithm: sha1WithRSAEncryption
        59:8b:33:e1:7c:1b:63:02:f1:93:60:a5:17:29:fb:62:51:00:
        cc:e1:41:2c:c4:35:ad:2a:7f:ec:e7:cc:aa:e6:06:03:73:7f:
        19:5f:30:ea:78:ee:a7:99:3d:0a:40:34:20:a7:3c:7c:95:7b:
        5e:15:cc:21:41:2e:6d:47:72:92:78:93:50:ba:9e:9c:77:8d:
        a0:d7:e3:e3:0d:08:95:f0:30:47:ee:1f:c2:b4:a3:2f:9c:bc:
        18:43:45:86:86:89:37:34:f9:ae:b9:03:53:50:6d:1b:b3:d8:
        57:9c:9b:35:93:af:46:39:35:f4:ae:87:e7:22:f5:ca:75:b4:
        b0:fd
-----BEGIN CERTIFICATE-----
MIICyzCCAjSgAwIBAgIBATANBgkqhkiG9w0BAQUFADBmMQswCQYDVQQGEwJHQjEN
MAsGA1UECBMES2VudDEXMBUGA1UEChMOSWNvbWVyYSBVSyBMdGQxEzARBgNVBAsT
Cm1vb3ZtYW5hZ2UxGjAYBgNVBAMTEWNhLm1vb3ZtYW5hZ2UuY29tMB4XDTA5MDEy
MTExMDk1M1oXDTE5MDExOTExMDk1M1owdDELMAkGA1UEBhMCR0IxDTALBgNVBAgT
BEtlbnQxFjAUBgNVBAcTDVNpdHRpbmdib3VybmUxFzAVBgNVBAoTDkljb21lcmEg
VUsgTHRkMRMwEQYDVQQLEwptb292bWFuYWdlMRAwDgYDVQQDEwdNb292Ym94MIGf
MA0GCSqGSIb3DQEBAQUAA4GNADCBiQKBgQCUXTlxqpXQbfcomfFA5I1Eb5APi1nD
PskrhhFZwpp3MkmeuMtyNsnw1WB1hjGOGNx7BefO2T/mBKiYt56ZImBtlLE4Otpi
iLBWdXKhceHDZmV1Fsxx7wEoJ8DnfQ914idx+M1HTZ3aPxhBQzfDHer7IwDl+evF
LkWsjHQXSNDl+QIDAQABo3sweTAJBgNVHRMEAjAAMCwGCWCGSAGG+EIBDQQfFh1P
cGVuU1NMIEdlbmVyYXRlZCBDZXJ0aWZpY2F0ZTAdBgNVHQ4EFgQUwkCcafAGOlZi
DTmpiggFUPJCXn8wHwYDVR0jBBgwFoAU9IN0qIyanDVst5iUL3Qu/9tZah0wDQYJ
KoZIhvcNAQEFBQADgYEAWYsz4XwbYwLxk2ClFyn7YlEAzOFBLMQ1rSp/7OfMquYG
A3N/GV8w6njup5k9CkA0IKc8fJV7XhXMIUEubUdykniTULqenHeNoNfj4w0IlfAw
R+4fwrSjL5y8GENFhoaJNzT5rrkDU1BtG7PYV5ybNZOvRjk19K6H5yL1ynW0sP0=
-----END CERTIFICATE-----
